; Function Attrs: mustprogress uwtable
define internal fastcc void @_ZN21grpc_python_generator12_GLOBAL__N_118GenerateMethodTypeB5cxx11EPKN14grpc_generator6MethodE(ptr noalias nonnull align 8 %agg.result, ptr noundef nonnull %method) unnamed_addr #0 personality ptr @__gxx_personality_v0 {
entry:
  %ref.tmp = alloca %"class.std::allocator", align 1
  %ref.tmp5 = alloca %"class.std::allocator", align 1
  %ref.tmp13 = alloca %"class.std::allocator", align 1
  %ref.tmp17 = alloca %"class.std::allocator", align 1
  %vtable = load ptr, ptr %method, align 8
  %vfn = getelementptr inbounds nuw i8, ptr %vtable, i64 120
  %0 = load ptr, ptr %vfn, align 8
  %call = tail call noundef zeroext i1 %0(ptr noundef nonnull align 8 dereferenceable(8) %method)
  br i1 %call, label %if.then, label %if.end

if.then:                                          ; preds = %entry
  call void @_ZNSaIcEC1Ev(ptr noundef nonnull align 1 dereferenceable(1) %ref.tmp) #11
  %call.i4 = invoke noundef ptr @_ZNSt7__cxx1112basic_stringIcSt11char_traitsIcESaIcEE13_M_local_dataEv(ptr noundef nonnull align 8 dereferenceable(32) %agg.result)
          to label %call.i.noexc unwind label %lpad

call.i.noexc:                                     ; preds = %if.then
  invoke void @_ZNSt7__cxx1112basic_stringIcSt11char_traitsIcESaIcEE12_Alloc_hiderC1EPcRKS3_(ptr noundef nonnull align 8 dereferenceable(32) %agg.result, ptr noundef %call.i4, ptr noundef nonnull align 1 dereferenceable(1) %ref.tmp)
          to label %.noexc unwind label %lpad

.noexc:                                           ; preds = %call.i.noexc
  invoke void @_ZNSt7__cxx1112basic_stringIcSt11char_traitsIcESaIcEE12_M_constructIPKcEEvT_S8_St20forward_iterator_tag(ptr noundef nonnull align 8 dereferenceable(32) %agg.result, ptr noundef nonnull @.str.17, ptr noundef nonnull getelementptr inbounds nuw (i8, ptr @.str.17, i64 11))
          to label %return unwind label %lpad.i

lpad.i:                                           ; preds = %.noexc
  %1 = landingpad { ptr, i32 }
          cleanup
  call void @_ZNSaIcED2Ev(ptr noundef nonnull align 8 dereferenceable(32) %agg.result) #11
  br label %eh.resume

lpad:                                             ; preds = %call.i.noexc, %if.then
  %2 = landingpad { ptr, i32 }
          cleanup
  br label %eh.resume

if.end:                                           ; preds = %entry
  %vtable1 = load ptr, ptr %method, align 8
  %vfn2 = getelementptr inbounds nuw i8, ptr %vtable1, i64 136
  %3 = load ptr, ptr %vfn2, align 8
  %call3 = tail call noundef zeroext i1 %3(ptr noundef nonnull align 8 dereferenceable(8) %method)
  br i1 %call3, label %if.then4, label %if.end8

if.then4:                                         ; preds = %if.end
  call void @_ZNSaIcEC1Ev(ptr noundef nonnull align 1 dereferenceable(1) %ref.tmp5) #11
  %call.i9 = invoke noundef ptr @_ZNSt7__cxx1112basic_stringIcSt11char_traitsIcESaIcEE13_M_local_dataEv(ptr noundef nonnull align 8 dereferenceable(32) %agg.result)
          to label %call.i.noexc8 unwind label %lpad6

call.i.noexc8:                                    ; preds = %if.then4
  invoke void @_ZNSt7__cxx1112basic_stringIcSt11char_traitsIcESaIcEE12_Alloc_hiderC1EPcRKS3_(ptr noundef nonnull align 8 dereferenceable(32) %agg.result, ptr noundef %call.i9, ptr noundef nonnull align 1 dereferenceable(1) %ref.tmp5)
          to label %.noexc10 unwind label %lpad6

.noexc10:                                         ; preds = %call.i.noexc8
  invoke void @_ZNSt7__cxx1112basic_stringIcSt11char_traitsIcESaIcEE12_M_constructIPKcEEvT_S8_St20forward_iterator_tag(ptr noundef nonnull align 8 dereferenceable(32) %agg.result, ptr noundef nonnull @.str.18, ptr noundef nonnull getelementptr inbounds nuw (i8, ptr @.str.18, i64 12))
          to label %return unwind label %lpad.i7

lpad.i7:                                          ; preds = %.noexc10
  %4 = landingpad { ptr, i32 }
          cleanup
  call void @_ZNSaIcED2Ev(ptr noundef nonnull align 8 dereferenceable(32) %agg.result) #11
  br label %eh.resume

lpad6:                                            ; preds = %call.i.noexc8, %if.then4
  %5 = landingpad { ptr, i32 }
          cleanup
  br label %eh.resume

if.end8:                                          ; preds = %if.end
  %vtable9 = load ptr, ptr %method, align 8
  %vfn10 = getelementptr inbounds nuw i8, ptr %vtable9, i64 128
  %6 = load ptr, ptr %vfn10, align 8
  %call11 = tail call noundef zeroext i1 %6(ptr noundef nonnull align 8 dereferenceable(8) %method)
  br i1 %call11, label %if.then12, label %if.end16

if.then12:                                        ; preds = %if.end8
  call void @_ZNSaIcEC1Ev(ptr noundef nonnull align 1 dereferenceable(1) %ref.tmp13) #11
  %call.i17 = invoke noundef ptr @_ZNSt7__cxx1112basic_stringIcSt11char_traitsIcESaIcEE13_M_local_dataEv(ptr noundef nonnull align 8 dereferenceable(32) %agg.result)
          to label %call.i.noexc16 unwind label %lpad14

call.i.noexc16:                                   ; preds = %if.then12
  invoke void @_ZNSt7__cxx1112basic_stringIcSt11char_traitsIcESaIcEE12_Alloc_hiderC1EPcRKS3_(ptr noundef nonnull align 8 dereferenceable(32) %agg.result, ptr noundef %call.i17, ptr noundef nonnull align 1 dereferenceable(1) %ref.tmp13)
          to label %.noexc18 unwind label %lpad14

.noexc18:                                         ; preds = %call.i.noexc16
  invoke void @_ZNSt7__cxx1112basic_stringIcSt11char_traitsIcESaIcEE12_M_constructIPKcEEvT_S8_St20forward_iterator_tag(ptr noundef nonnull align 8 dereferenceable(32) %agg.result, ptr noundef nonnull @.str.19, ptr noundef nonnull getelementptr inbounds nuw (i8, ptr @.str.19, i64 12))
          to label %return unwind label %lpad.i15

lpad.i15:                                         ; preds = %.noexc18
  %7 = landingpad { ptr, i32 }
          cleanup
  call void @_ZNSaIcED2Ev(ptr noundef nonnull align 8 dereferenceable(32) %agg.result) #11
  br label %eh.resume

lpad14:                                           ; preds = %call.i.noexc16, %if.then12
  %8 = landingpad { ptr, i32 }
          cleanup
  br label %eh.resume

if.end16:                                         ; preds = %if.end8
  call void @_ZNSaIcEC1Ev(ptr noundef nonnull align 1 dereferenceable(1) %ref.tmp17) #11
  %call.i25 = invoke noundef ptr @_ZNSt7__cxx1112basic_stringIcSt11char_traitsIcESaIcEE13_M_local_dataEv(ptr noundef nonnull align 8 dereferenceable(32) %agg.result)
          to label %call.i.noexc24 unwind label %lpad18

call.i.noexc24:                                   ; preds = %if.end16
  invoke void @_ZNSt7__cxx1112basic_stringIcSt11char_traitsIcESaIcEE12_Alloc_hiderC1EPcRKS3_(ptr noundef nonnull align 8 dereferenceable(32) %agg.result, ptr noundef %call.i25, ptr noundef nonnull align 1 dereferenceable(1) %ref.tmp17)
          to label %.noexc26 unwind label %lpad18

.noexc26:                                         ; preds = %call.i.noexc24
  invoke void @_ZNSt7__cxx1112basic_stringIcSt11char_traitsIcESaIcEE12_M_constructIPKcEEvT_S8_St20forward_iterator_tag(ptr noundef nonnull align 8 dereferenceable(32) %agg.result, ptr noundef nonnull @.str.20, ptr noundef nonnull getelementptr inbounds nuw (i8, ptr @.str.20, i64 13))
          to label %return unwind label %lpad.i23

lpad.i23:                                         ; preds = %.noexc26
  %9 = landingpad { ptr, i32 }
          cleanup
  call void @_ZNSaIcED2Ev(ptr noundef nonnull align 8 dereferenceable(32) %agg.result) #11
  br label %eh.resume

lpad18:                                           ; preds = %call.i.noexc24, %if.end16
  %10 = landingpad { ptr, i32 }
          cleanup
  br label %eh.resume

return:                                           ; preds = %.noexc26, %.noexc18, %.noexc10, %.noexc
  %ref.tmp17.sink = phi ptr [ %ref.tmp, %.noexc ], [ %ref.tmp5, %.noexc10 ], [ %ref.tmp13, %.noexc18 ], [ %ref.tmp17, %.noexc26 ]
  call void @_ZNSaIcED1Ev(ptr noundef nonnull align 1 dereferenceable(1) %ref.tmp17.sink) #11
  ret void

eh.resume:                                        ; preds = %lpad18, %lpad.i23, %lpad14, %lpad.i15, %lpad6, %lpad.i7, %lpad, %lpad.i
  %ref.tmp17.sink29 = phi ptr [ %ref.tmp, %lpad.i ], [ %ref.tmp, %lpad ], [ %ref.tmp5, %lpad.i7 ], [ %ref.tmp5, %lpad6 ], [ %ref.tmp13, %lpad.i15 ], [ %ref.tmp13, %lpad14 ], [ %ref.tmp17, %lpad.i23 ], [ %ref.tmp17, %lpad18 ]
  %.pn = phi { ptr, i32 } [ %1, %lpad.i ], [ %2, %lpad ], [ %4, %lpad.i7 ], [ %5, %lpad6 ], [ %7, %lpad.i15 ], [ %8, %lpad14 ], [ %9, %lpad.i23 ], [ %10, %lpad18 ]
  call void @_ZNSaIcED1Ev(ptr noundef nonnull align 1 dereferenceable(1) %ref.tmp17.sink29) #11
  resume { ptr, i32 } %.pn
}